target datalayout = "e-m:e-p270:32:32-p271:32:32-p272:64:64-i64:64-i128:128-f80:128-n8:16:32:64-S128"
target triple = "x86_64-pc-linux-gnu"

%struct.__sigset_t = type { [16 x i64] }
%struct.rb_vm_struct = type { i64, %struct.anon, ptr, i64, %struct.ccan_list_head, i32, i8, i64, ptr, [5 x i64], i64, i64, i64, i64, i64, i64, i64, i64, i64, ptr, ptr, ptr, %struct.anon.3, ptr, i32, %struct.ccan_list_head, %union.pthread_mutex_t, i64, i64, i64, i64, i32, %struct.anon.4, ptr, ptr, ptr, ptr, ptr, ptr, ptr, ptr, i64, [1023 x ptr], %struct.anon.5 }
%struct.anon = type { %struct.ccan_list_head, i32, i32, ptr, ptr, %struct.anon.0, %struct.anon.2 }
%struct.anon.0 = type { %union.pthread_mutex_t, ptr, i32, %union.pthread_cond_t, i8 }
%union.pthread_cond_t = type { %struct.__pthread_cond_s }
%struct.__pthread_cond_s = type { %union.__atomic_wide_counter, %union.__atomic_wide_counter, [2 x i32], [2 x i32], i32, i32, [2 x i32] }
%union.__atomic_wide_counter = type { i64 }
%struct.anon.2 = type { %union.pthread_mutex_t, ptr, i8, %union.pthread_cond_t, i32, i32, i32, i32, %struct.ccan_list_head, i32, %struct.ccan_list_head, %struct.ccan_list_head, %struct.ccan_list_head, i8, %union.pthread_cond_t, %union.pthread_cond_t, i8, i32, i32 }
%struct.anon.3 = type { [65 x i64] }
%struct.ccan_list_head = type { %struct.ccan_list_node }
%struct.ccan_list_node = type { ptr, ptr }
%union.pthread_mutex_t = type { %struct.__pthread_mutex_s }
%struct.__pthread_mutex_s = type { i32, i32, i32, i32, i32, i16, i16, %struct.__pthread_internal_list }
%struct.__pthread_internal_list = type { ptr, ptr }
%struct.anon.4 = type { ptr, ptr }
%struct.anon.5 = type { i64, i64, i64, i64 }
%struct.rb_vm_tag = type { i64, i64, [5 x ptr], ptr, i32, i32 }
%struct.rb_execution_context_struct = type { ptr, i64, ptr, ptr, i32, i32, ptr, ptr, ptr, i64, i64, i64, ptr, i64, ptr, i64, i64, i8, i8, i64, %struct.anon.7 }
%struct.anon.7 = type { ptr, ptr, i64, [1 x %struct.__jmp_buf_tag] }
%struct.__jmp_buf_tag = type { [8 x i64], i32, %struct.__sigset_t }
%struct.rb_thread_struct = type { %struct.ccan_list_node, i64, ptr, ptr, ptr, ptr, %struct.rb_thread_sched_item, i8, i32, i64, ptr, i64, i64, i8, i8, i32, ptr, i64, i64, i64, i64, %union.pthread_mutex_t, %struct.rb_unblock_callback, i64, ptr, %struct.ccan_list_head, ptr, %union.anon, i32, i64, ptr, i64, i32, i64, ptr, %struct.rb_ext_config }
%struct.rb_thread_sched_item = type { %struct.anon.8, %struct.rb_thread_sched_waiting, i8, i8, ptr, ptr }
%struct.anon.8 = type { %struct.ccan_list_node, %struct.ccan_list_node, %struct.ccan_list_node, %struct.ccan_list_node, %struct.ccan_list_node }
%struct.rb_thread_sched_waiting = type { i32, %struct.anon.9, %struct.ccan_list_node }
%struct.anon.9 = type { i64, i32, i32 }
%struct.rb_unblock_callback = type { ptr, ptr }
%union.anon = type { %struct.anon.10 }
%struct.anon.10 = type { i64, i64, i32 }
%struct.rb_ext_config = type { i8 }

; Function Attrs: inlinehint nounwind sspstrong uwtable
define internal ptr @rb_ec_thread_ptr(ptr noundef %0) #5 {
  %2 = alloca ptr, align 8
  store ptr %0, ptr %2, align 8, !tbaa !56
  %3 = load ptr, ptr %2, align 8, !tbaa !56
  %4 = getelementptr inbounds nuw %struct.rb_execution_context_struct, ptr %3, i32 0, i32 7
  %5 = load ptr, ptr %4, align 8, !tbaa !93
  ret ptr %5
}

; Function Attrs: inlinehint nounwind sspstrong uwtable
define internal ptr @rb_ec_ractor_ptr(ptr noundef %0) #5 {
  %2 = alloca ptr, align 8
  %3 = alloca ptr, align 8
  %4 = alloca ptr, align 8
  %5 = alloca i32, align 4
  store ptr %0, ptr %3, align 8, !tbaa !56
  call void @llvm.lifetime.start.p0(i64 8, ptr %4) #22
  %6 = load ptr, ptr %3, align 8, !tbaa !56
  %7 = call ptr @rb_ec_thread_ptr(ptr noundef %6)
  store ptr %7, ptr %4, align 8, !tbaa !85
  %8 = load ptr, ptr %4, align 8, !tbaa !85
  %9 = icmp ne ptr %8, null
  br i1 %9, label %10, label %14

10:                                               ; preds = %1
  %11 = load ptr, ptr %4, align 8, !tbaa !85
  %12 = getelementptr inbounds nuw %struct.rb_thread_struct, ptr %11, i32 0, i32 2
  %13 = load ptr, ptr %12, align 8, !tbaa !110
  store ptr %13, ptr %2, align 8
  store i32 1, ptr %5, align 4
  br label %15

14:                                               ; preds = %1
  store ptr null, ptr %2, align 8
  store i32 1, ptr %5, align 4
  br label %15

15:                                               ; preds = %14, %10
  call void @llvm.lifetime.end.p0(i64 8, ptr %4) #22
  %16 = load ptr, ptr %2, align 8
  ret ptr %16
}

; Function Attrs: inlinehint nounwind sspstrong uwtable
define internal ptr @rb_ec_vm_ptr(ptr noundef %0) #5 {
  %2 = alloca ptr, align 8
  %3 = alloca ptr, align 8
  %4 = alloca ptr, align 8
  %5 = alloca i32, align 4
  store ptr %0, ptr %3, align 8, !tbaa !56
  call void @llvm.lifetime.start.p0(i64 8, ptr %4) #22
  %6 = load ptr, ptr %3, align 8, !tbaa !56
  %7 = call ptr @rb_ec_thread_ptr(ptr noundef %6)
  store ptr %7, ptr %4, align 8, !tbaa !85
  %8 = load ptr, ptr %4, align 8, !tbaa !85
  %9 = icmp ne ptr %8, null
  br i1 %9, label %10, label %14

10:                                               ; preds = %1
  %11 = load ptr, ptr %4, align 8, !tbaa !85
  %12 = getelementptr inbounds nuw %struct.rb_thread_struct, ptr %11, i32 0, i32 3
  %13 = load ptr, ptr %12, align 8, !tbaa !97
  store ptr %13, ptr %2, align 8
  store i32 1, ptr %5, align 4
  br label %15

14:                                               ; preds = %1
  store ptr null, ptr %2, align 8
  store i32 1, ptr %5, align 4
  br label %15

15:                                               ; preds = %14, %10
  call void @llvm.lifetime.end.p0(i64 8, ptr %4) #22
  %16 = load ptr, ptr %2, align 8
  ret ptr %16
}

; Function Attrs: inlinehint nounwind sspstrong uwtable
define internal i32 @rb_ec_vm_lock_rec(ptr noundef %0) #5 {
  %2 = alloca i32, align 4
  %3 = alloca ptr, align 8
  %4 = alloca ptr, align 8
  %5 = alloca i32, align 4
  store ptr %0, ptr %3, align 8, !tbaa !56
  call void @llvm.lifetime.start.p0(i64 8, ptr %4) #22
  %6 = load ptr, ptr %3, align 8, !tbaa !56
  %7 = call ptr @rb_ec_vm_ptr(ptr noundef %6)
  store ptr %7, ptr %4, align 8, !tbaa !58
  %8 = load ptr, ptr %4, align 8, !tbaa !58
  %9 = getelementptr inbounds nuw %struct.rb_vm_struct, ptr %8, i32 0, i32 1
  %10 = getelementptr inbounds nuw %struct.anon, ptr %9, i32 0, i32 5
  %11 = getelementptr inbounds nuw %struct.anon.0, ptr %10, i32 0, i32 1
  %12 = load ptr, ptr %11, align 8, !tbaa !94
  %13 = load ptr, ptr %3, align 8, !tbaa !56
  %14 = call ptr @rb_ec_ractor_ptr(ptr noundef %13)
  %15 = icmp ne ptr %12, %14
  br i1 %15, label %16, label %17

16:                                               ; preds = %1
  store i32 0, ptr %2, align 4
  store i32 1, ptr %5, align 4
  br label %23

17:                                               ; preds = %1
  %18 = load ptr, ptr %4, align 8, !tbaa !58
  %19 = getelementptr inbounds nuw %struct.rb_vm_struct, ptr %18, i32 0, i32 1
  %20 = getelementptr inbounds nuw %struct.anon, ptr %19, i32 0, i32 5
  %21 = getelementptr inbounds nuw %struct.anon.0, ptr %20, i32 0, i32 2
  %22 = load i32, ptr %21, align 8, !tbaa !95
  store i32 %22, ptr %2, align 4
  store i32 1, ptr %5, align 4
  br label %23

23:                                               ; preds = %17, %16
  call void @llvm.lifetime.end.p0(i64 8, ptr %4) #22
  %24 = load i32, ptr %2, align 4
  ret i32 %24
}

; Function Attrs: inlinehint nounwind sspstrong uwtable
define internal void @rb_ec_vm_lock_rec_check(ptr noundef %0, i32 noundef %1) #5 {
  %3 = alloca ptr, align 8
  %4 = alloca i32, align 4
  %5 = alloca i32, align 4
  store ptr %0, ptr %3, align 8, !tbaa !56
  store i32 %1, ptr %4, align 4, !tbaa !7
  call void @llvm.lifetime.start.p0(i64 4, ptr %5) #22
  %6 = load ptr, ptr %3, align 8, !tbaa !56
  %7 = call i32 @rb_ec_vm_lock_rec(ptr noundef %6)
  store i32 %7, ptr %5, align 4, !tbaa !7
  %8 = load i32, ptr %5, align 4, !tbaa !7
  %9 = load i32, ptr %4, align 4, !tbaa !7
  %10 = icmp ne i32 %8, %9
  br i1 %10, label %11, label %15

11:                                               ; preds = %2
  %12 = load ptr, ptr %3, align 8, !tbaa !56
  %13 = load i32, ptr %4, align 4, !tbaa !7
  %14 = load i32, ptr %5, align 4, !tbaa !7
  call void @rb_ec_vm_lock_rec_release(ptr noundef %12, i32 noundef %13, i32 noundef %14)
  br label %15

15:                                               ; preds = %11, %2
  call void @llvm.lifetime.end.p0(i64 4, ptr %5) #22
  ret void
}

; Function Attrs: inlinehint nounwind sspstrong uwtable
define internal i32 @rb_ec_tag_state(ptr noundef %0) #5 {
  %2 = alloca ptr, align 8
  %3 = alloca ptr, align 8
  %4 = alloca i32, align 4
  store ptr %0, ptr %2, align 8, !tbaa !56
  call void @llvm.lifetime.start.p0(i64 8, ptr %3) #22
  %5 = load ptr, ptr %2, align 8, !tbaa !56
  %6 = getelementptr inbounds nuw %struct.rb_execution_context_struct, ptr %5, i32 0, i32 3
  %7 = load ptr, ptr %6, align 8, !tbaa !82
  store ptr %7, ptr %3, align 8, !tbaa !96
  call void @llvm.lifetime.start.p0(i64 4, ptr %4) #22
  %8 = load ptr, ptr %3, align 8, !tbaa !96
  %9 = getelementptr inbounds nuw %struct.rb_vm_tag, ptr %8, i32 0, i32 4
  %10 = load i32, ptr %9, align 8, !tbaa !79
  store i32 %10, ptr %4, align 4, !tbaa !7
  %11 = load ptr, ptr %3, align 8, !tbaa !96
  %12 = getelementptr inbounds nuw %struct.rb_vm_tag, ptr %11, i32 0, i32 4
  store i32 0, ptr %12, align 8, !tbaa !79
  %13 = load ptr, ptr %2, align 8, !tbaa !56
  %14 = load ptr, ptr %3, align 8, !tbaa !96
  %15 = getelementptr inbounds nuw %struct.rb_vm_tag, ptr %14, i32 0, i32 5
  %16 = load i32, ptr %15, align 4, !tbaa !84
  call void @rb_ec_vm_lock_rec_check(ptr noundef %13, i32 noundef %16)
  %17 = load i32, ptr %4, align 4, !tbaa !7
  %18 = icmp ugt i32 %17, 0
  call void @llvm.assume(i1 %18)
  %19 = load i32, ptr %4, align 4, !tbaa !7
  %20 = icmp ule i32 %19, 8
  call void @llvm.assume(i1 %20)
  %21 = load i32, ptr %4, align 4, !tbaa !7
  call void @llvm.lifetime.end.p0(i64 4, ptr %4) #22
  call void @llvm.lifetime.end.p0(i64 8, ptr %3) #22
  ret i32 %21
}